; Function Attrs: mustprogress nofree norecurse nosync nounwind null_pointer_is_valid sspstrong willreturn memory(argmem: read) uwtable
define hidden zeroext i1 @packet_range_process_all(ptr noundef readonly captures(none) %0) local_unnamed_addr #3 {
  %2 = load i32, ptr %0, align 8
  %3 = icmp eq i32 %2, 0
  br i1 %3, label %4, label %13

4:                                                ; preds = %1
  %5 = getelementptr inbounds nuw i8, ptr %0, i64 4
  %6 = load i8, ptr %5, align 4, !range !11, !noundef !12
  %7 = trunc nuw i8 %6 to i1
  br i1 %7, label %13, label %8

8:                                                ; preds = %4
  %9 = getelementptr inbounds nuw i8, ptr %0, i64 5
  %10 = load i8, ptr %9, align 1, !range !11, !noundef !12
  %11 = trunc nuw i8 %10 to i1
  %12 = xor i1 %11, true
  br label %13

13:                                               ; preds = %8, %4, %1
  %14 = phi i1 [ false, %4 ], [ false, %1 ], [ %12, %8 ]
  ret i1 %14
}